; Function Attrs: mustprogress nounwind uwtable
define void @_ZN7ArchiveD2Ev(ptr noundef nonnull align 8 dereferenceable(57108) %0) unnamed_addr #8 align 2 {
  store ptr getelementptr inbounds inrange(-16, 64) ({ [10 x ptr] }, ptr @_ZTV7Archive, i64 0, i32 0, i64 2), ptr %0, align 8
  %2 = getelementptr inbounds i8, ptr %0, i64 11048
  %3 = load i8, ptr %2, align 8
  %4 = trunc i8 %3 to i1
  br i1 %4, label %5, label %10

5:                                                ; preds = %1
  %6 = getelementptr inbounds i8, ptr %0, i64 11056
  %7 = load ptr, ptr %6, align 8
  %8 = icmp eq ptr %7, null
  br i1 %8, label %10, label %9

9:                                                ; preds = %5
  tail call void @_ZN11CommandDataD2Ev(ptr noundef nonnull align 8 dereferenceable(100904) %7) #16
  tail call void @_ZdlPv(ptr noundef nonnull %7) #20
  br label %10

10:                                               ; preds = %5, %9, %1
  %11 = getelementptr inbounds i8, ptr %0, i64 39456
  %12 = load ptr, ptr %11, align 8
  %.not.i.i = icmp eq ptr %12, null
  br i1 %.not.i.i, label %_ZN10FileHeaderD2Ev.exit, label %13

13:                                               ; preds = %10
  tail call void @free(ptr noundef nonnull %12) #16
  br label %_ZN10FileHeaderD2Ev.exit

_ZN10FileHeaderD2Ev.exit:                         ; preds = %10, %13
  %14 = getelementptr inbounds i8, ptr %0, i64 22208
  %15 = load ptr, ptr %14, align 8
  %.not.i.i1 = icmp eq ptr %15, null
  br i1 %.not.i.i1, label %_ZN10FileHeaderD2Ev.exit2, label %16

16:                                               ; preds = %_ZN10FileHeaderD2Ev.exit
  tail call void @free(ptr noundef nonnull %15) #16
  br label %_ZN10FileHeaderD2Ev.exit2

_ZN10FileHeaderD2Ev.exit2:                        ; preds = %_ZN10FileHeaderD2Ev.exit, %16
  %17 = getelementptr inbounds i8, ptr %0, i64 13880
  tail call void @_ZNSt7__cxx1112basic_stringIwSt11char_traitsIwESaIwEED1Ev(ptr noundef nonnull align 8 dereferenceable(32) %17) #16
  %18 = getelementptr inbounds i8, ptr %0, i64 11088
  tail call void @_ZN9QuickOpenD1Ev(ptr noundef nonnull align 8 dereferenceable(2673) %18) #16
  %19 = getelementptr inbounds i8, ptr %0, i64 10776
  tail call void @_ZN11ComprDataIOD1Ev(ptr noundef nonnull align 8 dereferenceable(266) %19) #16
  %20 = getelementptr inbounds i8, ptr %0, i64 8256
  tail call void @_ZN9CryptDataD2Ev(ptr noundef nonnull align 8 dereferenceable(2516) %20) #16
  tail call void @_ZN4FileD2Ev(ptr noundef nonnull align 8 dereferenceable(8256) %0) #16
  ret void
}